target datalayout = "e-m:e-p270:32:32-p271:32:32-p272:64:64-i64:64-i128:128-f80:128-n8:16:32:64-S128"
target triple = "x86_64-pc-linux-gnu"

%class.TransTableS = type <{ %class.TransTable, [14 x i64], %"struct.TransTableS::statsResetsType", [4 x i8], [5 x %"struct.TransTableS::winCardType"], i32, i32, i64, i64, i64, i32, i32, i32, i32, i32, i8, [3 x i8], i32, [4 x i8], ptr, [14 x [4 x ptr]], ptr, ptr, [14 x [4 x ptr]], ptr, ptr, [14 x [4 x ptr]], i32, i32, [14 x [4 x i32]], [14 x [4 x i32]], %"class.std::vector", [14 x i64], i32, [4 x i8] }>
%class.TransTable = type { ptr }
%"struct.TransTableS::statsResetsType" = type { i32, [6 x i32] }
%"struct.TransTableS::winCardType" = type { i32, i32, ptr, ptr, ptr, ptr }
%"class.std::vector" = type { %"struct.std::_Vector_base" }
%"struct.std::_Vector_base" = type { %"struct.std::_Vector_base<std::__cxx11::basic_string<char>, std::allocator<std::__cxx11::basic_string<char>>>::_Vector_impl" }
%"struct.std::_Vector_base<std::__cxx11::basic_string<char>, std::allocator<std::__cxx11::basic_string<char>>>::_Vector_impl" = type { %"struct.std::_Vector_base<std::__cxx11::basic_string<char>, std::allocator<std::__cxx11::basic_string<char>>>::_Vector_impl_data" }
%"struct.std::_Vector_base<std::__cxx11::basic_string<char>, std::allocator<std::__cxx11::basic_string<char>>>::_Vector_impl_data" = type { ptr, ptr, ptr }
%"struct.TransTableS::posSearchTypeSmall" = type { ptr, i64, ptr, ptr }

; Function Attrs: mustprogress nounwind uwtable
define void @_ZN11TransTableS9AddLenSetEii(ptr noundef nonnull align 8 dereferenceable(2396) %0, i32 noundef %1, i32 noundef %2) #5 align 2 {
  %4 = alloca ptr, align 8
  %5 = alloca i32, align 4
  %6 = alloca i32, align 4
  %7 = alloca i32, align 4
  store ptr %0, ptr %4, align 8
  store i32 %1, ptr %5, align 4
  store i32 %2, ptr %6, align 4
  %8 = load ptr, ptr %4, align 8
  %9 = getelementptr inbounds nuw %class.TransTableS, ptr %8, i32 0, i32 29
  %10 = load i32, ptr %5, align 4
  %11 = sext i32 %10 to i64
  %12 = getelementptr inbounds [14 x [4 x i32]], ptr %9, i64 0, i64 %11
  %13 = load i32, ptr %6, align 4
  %14 = sext i32 %13 to i64
  %15 = getelementptr inbounds [4 x i32], ptr %12, i64 0, i64 %14
  %16 = load i32, ptr %15, align 4
  %17 = icmp slt i32 %16, 200
  br i1 %17, label %18, label %28

18:                                               ; preds = %3
  %19 = getelementptr inbounds nuw %class.TransTableS, ptr %8, i32 0, i32 29
  %20 = load i32, ptr %5, align 4
  %21 = sext i32 %20 to i64
  %22 = getelementptr inbounds [14 x [4 x i32]], ptr %19, i64 0, i64 %21
  %23 = load i32, ptr %6, align 4
  %24 = sext i32 %23 to i64
  %25 = getelementptr inbounds [4 x i32], ptr %22, i64 0, i64 %24
  %26 = load i32, ptr %25, align 4
  %27 = add nsw i32 %26, 1
  store i32 %27, ptr %25, align 4
  br label %137

28:                                               ; preds = %3
  store i32 6432, ptr %7, align 4
  %29 = getelementptr inbounds nuw %class.TransTableS, ptr %8, i32 0, i32 8
  %30 = load i64, ptr %29, align 8
  %31 = add i64 %30, 6432
  %32 = getelementptr inbounds nuw %class.TransTableS, ptr %8, i32 0, i32 7
  %33 = load i64, ptr %32, align 8
  %34 = icmp ugt i64 %31, %33
  br i1 %34, label %47, label %35

35:                                               ; preds = %28
  %36 = getelementptr inbounds nuw %class.TransTableS, ptr %8, i32 0, i32 30
  %37 = load i32, ptr %5, align 4
  %38 = sext i32 %37 to i64
  %39 = getelementptr inbounds [14 x [4 x i32]], ptr %36, i64 0, i64 %38
  %40 = load i32, ptr %6, align 4
  %41 = sext i32 %40 to i64
  %42 = getelementptr inbounds [4 x i32], ptr %39, i64 0, i64 %41
  %43 = load i32, ptr %42, align 4
  %44 = getelementptr inbounds nuw %class.TransTableS, ptr %8, i32 0, i32 12
  %45 = load i32, ptr %44, align 8
  %46 = icmp sge i32 %43, %45
  br i1 %46, label %47, label %49

47:                                               ; preds = %35, %28
  %48 = getelementptr inbounds nuw %class.TransTableS, ptr %8, i32 0, i32 15
  store i8 1, ptr %48, align 4
  br label %137

49:                                               ; preds = %35
  %50 = getelementptr inbounds nuw %class.TransTableS, ptr %8, i32 0, i32 30
  %51 = load i32, ptr %5, align 4
  %52 = sext i32 %51 to i64
  %53 = getelementptr inbounds [14 x [4 x i32]], ptr %50, i64 0, i64 %52
  %54 = load i32, ptr %6, align 4
  %55 = sext i32 %54 to i64
  %56 = getelementptr inbounds [4 x i32], ptr %53, i64 0, i64 %55
  %57 = load i32, ptr %56, align 4
  %58 = add nsw i32 %57, 1
  store i32 %58, ptr %56, align 4
  %59 = call noalias ptr @malloc(i64 noundef 6432) #18
  %60 = getelementptr inbounds nuw %class.TransTableS, ptr %8, i32 0, i32 23
  %61 = load i32, ptr %5, align 4
  %62 = sext i32 %61 to i64
  %63 = getelementptr inbounds [14 x [4 x ptr]], ptr %60, i64 0, i64 %62
  %64 = load i32, ptr %6, align 4
  %65 = sext i32 %64 to i64
  %66 = getelementptr inbounds [4 x ptr], ptr %63, i64 0, i64 %65
  %67 = load ptr, ptr %66, align 8
  %68 = getelementptr inbounds nuw %class.TransTableS, ptr %8, i32 0, i32 30
  %69 = load i32, ptr %5, align 4
  %70 = sext i32 %69 to i64
  %71 = getelementptr inbounds [14 x [4 x i32]], ptr %68, i64 0, i64 %70
  %72 = load i32, ptr %6, align 4
  %73 = sext i32 %72 to i64
  %74 = getelementptr inbounds [4 x i32], ptr %71, i64 0, i64 %73
  %75 = load i32, ptr %74, align 4
  %76 = sext i32 %75 to i64
  %77 = getelementptr inbounds ptr, ptr %67, i64 %76
  store ptr %59, ptr %77, align 8
  %78 = getelementptr inbounds nuw %class.TransTableS, ptr %8, i32 0, i32 23
  %79 = load i32, ptr %5, align 4
  %80 = sext i32 %79 to i64
  %81 = getelementptr inbounds [14 x [4 x ptr]], ptr %78, i64 0, i64 %80
  %82 = load i32, ptr %6, align 4
  %83 = sext i32 %82 to i64
  %84 = getelementptr inbounds [4 x ptr], ptr %81, i64 0, i64 %83
  %85 = load ptr, ptr %84, align 8
  %86 = getelementptr inbounds nuw %class.TransTableS, ptr %8, i32 0, i32 30
  %87 = load i32, ptr %5, align 4
  %88 = sext i32 %87 to i64
  %89 = getelementptr inbounds [14 x [4 x i32]], ptr %86, i64 0, i64 %88
  %90 = load i32, ptr %6, align 4
  %91 = sext i32 %90 to i64
  %92 = getelementptr inbounds [4 x i32], ptr %89, i64 0, i64 %91
  %93 = load i32, ptr %92, align 4
  %94 = sext i32 %93 to i64
  %95 = getelementptr inbounds ptr, ptr %85, i64 %94
  %96 = load ptr, ptr %95, align 8
  %97 = icmp eq ptr %96, null
  br i1 %97, label %98, label %100

98:                                               ; preds = %49
  %99 = getelementptr inbounds nuw %class.TransTableS, ptr %8, i32 0, i32 15
  store i8 1, ptr %99, align 4
  br label %137

100:                                              ; preds = %49
  %101 = getelementptr inbounds nuw %class.TransTableS, ptr %8, i32 0, i32 8
  %102 = load i64, ptr %101, align 8
  %103 = add i64 %102, 6432
  store i64 %103, ptr %101, align 8
  %104 = getelementptr inbounds nuw %class.TransTableS, ptr %8, i32 0, i32 29
  %105 = load i32, ptr %5, align 4
  %106 = sext i32 %105 to i64
  %107 = getelementptr inbounds [14 x [4 x i32]], ptr %104, i64 0, i64 %106
  %108 = load i32, ptr %6, align 4
  %109 = sext i32 %108 to i64
  %110 = getelementptr inbounds [4 x i32], ptr %107, i64 0, i64 %109
  store i32 0, ptr %110, align 4
  %111 = getelementptr inbounds nuw %class.TransTableS, ptr %8, i32 0, i32 23
  %112 = load i32, ptr %5, align 4
  %113 = sext i32 %112 to i64
  %114 = getelementptr inbounds [14 x [4 x ptr]], ptr %111, i64 0, i64 %113
  %115 = load i32, ptr %6, align 4
  %116 = sext i32 %115 to i64
  %117 = getelementptr inbounds [4 x ptr], ptr %114, i64 0, i64 %116
  %118 = load ptr, ptr %117, align 8
  %119 = getelementptr inbounds nuw %class.TransTableS, ptr %8, i32 0, i32 30
  %120 = load i32, ptr %5, align 4
  %121 = sext i32 %120 to i64
  %122 = getelementptr inbounds [14 x [4 x i32]], ptr %119, i64 0, i64 %121
  %123 = load i32, ptr %6, align 4
  %124 = sext i32 %123 to i64
  %125 = getelementptr inbounds [4 x i32], ptr %122, i64 0, i64 %124
  %126 = load i32, ptr %125, align 4
  %127 = sext i32 %126 to i64
  %128 = getelementptr inbounds ptr, ptr %118, i64 %127
  %129 = load ptr, ptr %128, align 8
  %130 = getelementptr inbounds nuw %class.TransTableS, ptr %8, i32 0, i32 26
  %131 = load i32, ptr %5, align 4
  %132 = sext i32 %131 to i64
  %133 = getelementptr inbounds [14 x [4 x ptr]], ptr %130, i64 0, i64 %132
  %134 = load i32, ptr %6, align 4
  %135 = sext i32 %134 to i64
  %136 = getelementptr inbounds [4 x ptr], ptr %133, i64 0, i64 %135
  store ptr %129, ptr %136, align 8
  br label %137

137:                                              ; preds = %100, %98, %47, %18
  ret void
}

; Function Attrs: mustprogress nounwind uwtable
define noundef ptr @_ZN11TransTableS18SearchLenAndInsertEPNS_18posSearchTypeSmallExbiiRb(ptr noundef nonnull align 8 dereferenceable(2396) %0, ptr noundef %1, i64 noundef %2, i1 noundef zeroext %3, i32 noundef %4, i32 noundef %5, ptr noundef nonnull align 1 dereferenceable(1) %6) #5 align 2 {
  %8 = alloca ptr, align 8
  %9 = alloca ptr, align 8
  %10 = alloca ptr, align 8
  %11 = alloca i64, align 8
  %12 = alloca i8, align 1
  %13 = alloca i32, align 4
  %14 = alloca i32, align 4
  %15 = alloca ptr, align 8
  %16 = alloca ptr, align 8
  %17 = alloca ptr, align 8
  %18 = alloca ptr, align 8
  store ptr %0, ptr %9, align 8
  store ptr %1, ptr %10, align 8
  store i64 %2, ptr %11, align 8
  %19 = zext i1 %3 to i8
  store i8 %19, ptr %12, align 1
  store i32 %4, ptr %13, align 4
  store i32 %5, ptr %14, align 4
  store ptr %6, ptr %15, align 8
  %20 = load ptr, ptr %9, align 8
  store ptr null, ptr %18, align 8
  %21 = load i8, ptr %12, align 1
  %22 = trunc i8 %21 to i1
  br i1 %22, label %23, label %42

23:                                               ; preds = %7
  %24 = getelementptr inbounds nuw %class.TransTableS, ptr %20, i32 0, i32 26
  %25 = load i32, ptr %13, align 4
  %26 = sext i32 %25 to i64
  %27 = getelementptr inbounds [14 x [4 x ptr]], ptr %24, i64 0, i64 %26
  %28 = load i32, ptr %14, align 4
  %29 = sext i32 %28 to i64
  %30 = getelementptr inbounds [4 x ptr], ptr %27, i64 0, i64 %29
  %31 = load ptr, ptr %30, align 8
  %32 = getelementptr inbounds nuw %class.TransTableS, ptr %20, i32 0, i32 29
  %33 = load i32, ptr %13, align 4
  %34 = sext i32 %33 to i64
  %35 = getelementptr inbounds [14 x [4 x i32]], ptr %32, i64 0, i64 %34
  %36 = load i32, ptr %14, align 4
  %37 = sext i32 %36 to i64
  %38 = getelementptr inbounds [4 x i32], ptr %35, i64 0, i64 %37
  %39 = load i32, ptr %38, align 4
  %40 = sext i32 %39 to i64
  %41 = getelementptr inbounds %"struct.TransTableS::posSearchTypeSmall", ptr %31, i64 %40
  store ptr %41, ptr %18, align 8
  br label %42

42:                                               ; preds = %23, %7
  %43 = load ptr, ptr %10, align 8
  store ptr %43, ptr %16, align 8
  br label %44

44:                                               ; preds = %126, %42
  %45 = load i64, ptr %11, align 8
  %46 = load ptr, ptr %16, align 8
  %47 = getelementptr inbounds nuw %"struct.TransTableS::posSearchTypeSmall", ptr %46, i32 0, i32 1
  %48 = load i64, ptr %47, align 8
  %49 = icmp eq i64 %45, %48
  br i1 %49, label %50, label %53

50:                                               ; preds = %44
  %51 = load ptr, ptr %15, align 8
  store i8 1, ptr %51, align 1
  %52 = load ptr, ptr %16, align 8
  store ptr %52, ptr %8, align 8
  br label %127

53:                                               ; preds = %44
  %54 = load i64, ptr %11, align 8
  %55 = load ptr, ptr %16, align 8
  %56 = getelementptr inbounds nuw %"struct.TransTableS::posSearchTypeSmall", ptr %55, i32 0, i32 1
  %57 = load i64, ptr %56, align 8
  %58 = icmp slt i64 %54, %57
  br i1 %58, label %59, label %92

59:                                               ; preds = %53
  %60 = load ptr, ptr %16, align 8
  %61 = getelementptr inbounds nuw %"struct.TransTableS::posSearchTypeSmall", ptr %60, i32 0, i32 2
  %62 = load ptr, ptr %61, align 8
  %63 = icmp ne ptr %62, null
  br i1 %63, label %64, label %68

64:                                               ; preds = %59
  %65 = load ptr, ptr %16, align 8
  %66 = getelementptr inbounds nuw %"struct.TransTableS::posSearchTypeSmall", ptr %65, i32 0, i32 2
  %67 = load ptr, ptr %66, align 8
  store ptr %67, ptr %16, align 8
  br label %91

68:                                               ; preds = %59
  %69 = load i8, ptr %12, align 1
  %70 = trunc i8 %69 to i1
  br i1 %70, label %71, label %89

71:                                               ; preds = %68
  %72 = load ptr, ptr %18, align 8
  store ptr %72, ptr %17, align 8
  %73 = load i32, ptr %13, align 4
  %74 = load i32, ptr %14, align 4
  call void @_ZN11TransTableS9AddLenSetEii(ptr noundef nonnull align 8 dereferenceable(2396) %20, i32 noundef %73, i32 noundef %74)
  %75 = load ptr, ptr %17, align 8
  %76 = load ptr, ptr %16, align 8
  %77 = getelementptr inbounds nuw %"struct.TransTableS::posSearchTypeSmall", ptr %76, i32 0, i32 2
  store ptr %75, ptr %77, align 8
  %78 = load ptr, ptr %17, align 8
  %79 = getelementptr inbounds nuw %"struct.TransTableS::posSearchTypeSmall", ptr %78, i32 0, i32 0
  store ptr null, ptr %79, align 8
  %80 = load i64, ptr %11, align 8
  %81 = load ptr, ptr %17, align 8
  %82 = getelementptr inbounds nuw %"struct.TransTableS::posSearchTypeSmall", ptr %81, i32 0, i32 1
  store i64 %80, ptr %82, align 8
  %83 = load ptr, ptr %17, align 8
  %84 = getelementptr inbounds nuw %"struct.TransTableS::posSearchTypeSmall", ptr %83, i32 0, i32 2
  store ptr null, ptr %84, align 8
  %85 = load ptr, ptr %17, align 8
  %86 = getelementptr inbounds nuw %"struct.TransTableS::posSearchTypeSmall", ptr %85, i32 0, i32 3
  store ptr null, ptr %86, align 8
  %87 = load ptr, ptr %15, align 8
  store i8 1, ptr %87, align 1
  %88 = load ptr, ptr %17, align 8
  store ptr %88, ptr %8, align 8
  br label %127

89:                                               ; preds = %68
  %90 = load ptr, ptr %15, align 8
  store i8 0, ptr %90, align 1
  store ptr null, ptr %8, align 8
  br label %127

91:                                               ; preds = %64
  br label %125

92:                                               ; preds = %53
  %93 = load ptr, ptr %16, align 8
  %94 = getelementptr inbounds nuw %"struct.TransTableS::posSearchTypeSmall", ptr %93, i32 0, i32 3
  %95 = load ptr, ptr %94, align 8
  %96 = icmp ne ptr %95, null
  br i1 %96, label %97, label %101

97:                                               ; preds = %92
  %98 = load ptr, ptr %16, align 8
  %99 = getelementptr inbounds nuw %"struct.TransTableS::posSearchTypeSmall", ptr %98, i32 0, i32 3
  %100 = load ptr, ptr %99, align 8
  store ptr %100, ptr %16, align 8
  br label %124

101:                                              ; preds = %92
  %102 = load i8, ptr %12, align 1
  %103 = trunc i8 %102 to i1
  br i1 %103, label %104, label %122

104:                                              ; preds = %101
  %105 = load ptr, ptr %18, align 8
  store ptr %105, ptr %17, align 8
  %106 = load i32, ptr %13, align 4
  %107 = load i32, ptr %14, align 4
  call void @_ZN11TransTableS9AddLenSetEii(ptr noundef nonnull align 8 dereferenceable(2396) %20, i32 noundef %106, i32 noundef %107)
  %108 = load ptr, ptr %17, align 8
  %109 = load ptr, ptr %16, align 8
  %110 = getelementptr inbounds nuw %"struct.TransTableS::posSearchTypeSmall", ptr %109, i32 0, i32 3
  store ptr %108, ptr %110, align 8
  %111 = load ptr, ptr %17, align 8
  %112 = getelementptr inbounds nuw %"struct.TransTableS::posSearchTypeSmall", ptr %111, i32 0, i32 0
  store ptr null, ptr %112, align 8
  %113 = load i64, ptr %11, align 8
  %114 = load ptr, ptr %17, align 8
  %115 = getelementptr inbounds nuw %"struct.TransTableS::posSearchTypeSmall", ptr %114, i32 0, i32 1
  store i64 %113, ptr %115, align 8
  %116 = load ptr, ptr %17, align 8
  %117 = getelementptr inbounds nuw %"struct.TransTableS::posSearchTypeSmall", ptr %116, i32 0, i32 2
  store ptr null, ptr %117, align 8
  %118 = load ptr, ptr %17, align 8
  %119 = getelementptr inbounds nuw %"struct.TransTableS::posSearchTypeSmall", ptr %118, i32 0, i32 3
  store ptr null, ptr %119, align 8
  %120 = load ptr, ptr %15, align 8
  store i8 1, ptr %120, align 1
  %121 = load ptr, ptr %17, align 8
  store ptr %121, ptr %8, align 8
  br label %127

122:                                              ; preds = %101
  %123 = load ptr, ptr %15, align 8
  store i8 0, ptr %123, align 1
  store ptr null, ptr %8, align 8
  br label %127

124:                                              ; preds = %97
  br label %125

125:                                              ; preds = %124, %91
  br label %126

126:                                              ; preds = %125
  br label %44, !llvm.loop !32

127:                                              ; preds = %122, %104, %89, %71, %50
  %128 = load ptr, ptr %8, align 8
  ret ptr %128
}