; Function Attrs: mustprogress nofree nounwind uwtable
define noundef ptr @_ZN11TransTableS18SearchLenAndInsertEPNS_18posSearchTypeSmallExbiiRb(ptr nocapture noundef nonnull align 8 dereferenceable(2396) %0, ptr noundef %1, i64 noundef %2, i1 noundef zeroext %3, i32 noundef %4, i32 noundef %5, ptr nocapture noundef nonnull writeonly align 1 dereferenceable(1) %6) local_unnamed_addr #16 align 2 {
  br i1 %3, label %8, label %19

8:                                                ; preds = %7
  %9 = getelementptr inbounds nuw i8, ptr %0, i64 1352
  %10 = sext i32 %4 to i64
  %11 = sext i32 %5 to i64
  %12 = getelementptr inbounds [14 x [4 x ptr]], ptr %9, i64 0, i64 %10, i64 %11
  %13 = load ptr, ptr %12, align 8
  %14 = getelementptr inbounds nuw i8, ptr %0, i64 1808
  %15 = getelementptr inbounds [14 x [4 x i32]], ptr %14, i64 0, i64 %10, i64 %11
  %16 = load i32, ptr %15, align 4
  %17 = sext i32 %16 to i64
  %18 = getelementptr inbounds %"struct.TransTableS::posSearchTypeSmall", ptr %13, i64 %17
  br label %19

19:                                               ; preds = %8, %7
  %.0 = phi ptr [ %18, %8 ], [ null, %7 ]
  %20 = getelementptr inbounds nuw i8, ptr %1, i64 8
  %21 = load i64, ptr %20, align 8
  %22 = icmp eq i64 %2, %21
  br i1 %22, label %._crit_edge, label %.lr.ph

.lr.ph:                                           ; preds = %19, %135
  %23 = phi i64 [ %137, %135 ], [ %21, %19 ]
  %.04559 = phi ptr [ %.1, %135 ], [ %1, %19 ]
  %24 = icmp slt i64 %2, %23
  br i1 %24, label %25, label %80

25:                                               ; preds = %.lr.ph
  %26 = getelementptr inbounds nuw i8, ptr %.04559, i64 16
  %27 = load ptr, ptr %26, align 8
  %.not51 = icmp eq ptr %27, null
  br i1 %.not51, label %28, label %135

28:                                               ; preds = %25
  %29 = getelementptr inbounds nuw i8, ptr %.04559, i64 16
  br i1 %3, label %30, label %._crit_edge

30:                                               ; preds = %28
  %31 = getelementptr inbounds nuw i8, ptr %0, i64 1808
  %32 = sext i32 %4 to i64
  %33 = sext i32 %5 to i64
  %34 = getelementptr inbounds [14 x [4 x i32]], ptr %31, i64 0, i64 %32, i64 %33
  %35 = load i32, ptr %34, align 4
  %36 = icmp slt i32 %35, 200
  br i1 %36, label %37, label %39

37:                                               ; preds = %30
  %38 = add nsw i32 %35, 1
  store i32 %38, ptr %34, align 4
  br label %._crit_edge.sink.split

39:                                               ; preds = %30
  %40 = getelementptr inbounds nuw i8, ptr %0, i64 368
  %41 = load i64, ptr %40, align 8
  %42 = add i64 %41, 6432
  %43 = getelementptr inbounds nuw i8, ptr %0, i64 360
  %44 = load i64, ptr %43, align 8
  %45 = icmp ugt i64 %42, %44
  br i1 %45, label %52, label %46

46:                                               ; preds = %39
  %47 = getelementptr inbounds nuw i8, ptr %0, i64 2032
  %48 = getelementptr inbounds [14 x [4 x i32]], ptr %47, i64 0, i64 %32, i64 %33
  %49 = load i32, ptr %48, align 4
  %50 = getelementptr inbounds nuw i8, ptr %0, i64 392
  %51 = load i32, ptr %50, align 8
  %.not.i = icmp slt i32 %49, %51
  br i1 %.not.i, label %54, label %52

52:                                               ; preds = %46, %39
  %53 = getelementptr inbounds nuw i8, ptr %0, i64 404
  store i8 1, ptr %53, align 4
  br label %._crit_edge.sink.split

54:                                               ; preds = %46
  %55 = add nsw i32 %49, 1
  store i32 %55, ptr %48, align 4
  %56 = tail call noalias dereferenceable_or_null(6432) ptr @malloc(i64 noundef 6432) #30
  %57 = getelementptr inbounds nuw i8, ptr %0, i64 888
  %58 = getelementptr inbounds [14 x [4 x ptr]], ptr %57, i64 0, i64 %32, i64 %33
  %59 = load ptr, ptr %58, align 8
  %60 = sext i32 %55 to i64
  %61 = getelementptr inbounds ptr, ptr %59, i64 %60
  store ptr %56, ptr %61, align 8
  %62 = load ptr, ptr %58, align 8
  %63 = load i32, ptr %48, align 4
  %64 = sext i32 %63 to i64
  %65 = getelementptr inbounds ptr, ptr %62, i64 %64
  %66 = load ptr, ptr %65, align 8
  %67 = icmp eq ptr %66, null
  br i1 %67, label %68, label %70

68:                                               ; preds = %54
  %69 = getelementptr inbounds nuw i8, ptr %0, i64 404
  store i8 1, ptr %69, align 4
  br label %._crit_edge.sink.split

70:                                               ; preds = %54
  %71 = load i64, ptr %40, align 8
  %72 = add i64 %71, 6432
  store i64 %72, ptr %40, align 8
  store i32 0, ptr %34, align 4
  %73 = load ptr, ptr %58, align 8
  %74 = load i32, ptr %48, align 4
  %75 = sext i32 %74 to i64
  %76 = getelementptr inbounds ptr, ptr %73, i64 %75
  %77 = load ptr, ptr %76, align 8
  %78 = getelementptr inbounds nuw i8, ptr %0, i64 1352
  %79 = getelementptr inbounds [14 x [4 x ptr]], ptr %78, i64 0, i64 %32, i64 %33
  store ptr %77, ptr %79, align 8
  br label %._crit_edge.sink.split

80:                                               ; preds = %.lr.ph
  %81 = getelementptr inbounds nuw i8, ptr %.04559, i64 24
  %82 = load ptr, ptr %81, align 8
  %.not = icmp eq ptr %82, null
  br i1 %.not, label %83, label %135

83:                                               ; preds = %80
  %84 = getelementptr inbounds nuw i8, ptr %.04559, i64 24
  br i1 %3, label %85, label %._crit_edge

85:                                               ; preds = %83
  %86 = getelementptr inbounds nuw i8, ptr %0, i64 1808
  %87 = sext i32 %4 to i64
  %88 = sext i32 %5 to i64
  %89 = getelementptr inbounds [14 x [4 x i32]], ptr %86, i64 0, i64 %87, i64 %88
  %90 = load i32, ptr %89, align 4
  %91 = icmp slt i32 %90, 200
  br i1 %91, label %92, label %94

92:                                               ; preds = %85
  %93 = add nsw i32 %90, 1
  store i32 %93, ptr %89, align 4
  br label %._crit_edge.sink.split

94:                                               ; preds = %85
  %95 = getelementptr inbounds nuw i8, ptr %0, i64 368
  %96 = load i64, ptr %95, align 8
  %97 = add i64 %96, 6432
  %98 = getelementptr inbounds nuw i8, ptr %0, i64 360
  %99 = load i64, ptr %98, align 8
  %100 = icmp ugt i64 %97, %99
  br i1 %100, label %107, label %101

101:                                              ; preds = %94
  %102 = getelementptr inbounds nuw i8, ptr %0, i64 2032
  %103 = getelementptr inbounds [14 x [4 x i32]], ptr %102, i64 0, i64 %87, i64 %88
  %104 = load i32, ptr %103, align 4
  %105 = getelementptr inbounds nuw i8, ptr %0, i64 392
  %106 = load i32, ptr %105, align 8
  %.not.i52 = icmp slt i32 %104, %106
  br i1 %.not.i52, label %109, label %107

107:                                              ; preds = %101, %94
  %108 = getelementptr inbounds nuw i8, ptr %0, i64 404
  store i8 1, ptr %108, align 4
  br label %._crit_edge.sink.split

109:                                              ; preds = %101
  %110 = add nsw i32 %104, 1
  store i32 %110, ptr %103, align 4
  %111 = tail call noalias dereferenceable_or_null(6432) ptr @malloc(i64 noundef 6432) #30
  %112 = getelementptr inbounds nuw i8, ptr %0, i64 888
  %113 = getelementptr inbounds [14 x [4 x ptr]], ptr %112, i64 0, i64 %87, i64 %88
  %114 = load ptr, ptr %113, align 8
  %115 = sext i32 %110 to i64
  %116 = getelementptr inbounds ptr, ptr %114, i64 %115
  store ptr %111, ptr %116, align 8
  %117 = load ptr, ptr %113, align 8
  %118 = load i32, ptr %103, align 4
  %119 = sext i32 %118 to i64
  %120 = getelementptr inbounds ptr, ptr %117, i64 %119
  %121 = load ptr, ptr %120, align 8
  %122 = icmp eq ptr %121, null
  br i1 %122, label %123, label %125

123:                                              ; preds = %109
  %124 = getelementptr inbounds nuw i8, ptr %0, i64 404
  store i8 1, ptr %124, align 4
  br label %._crit_edge.sink.split

125:                                              ; preds = %109
  %126 = load i64, ptr %95, align 8
  %127 = add i64 %126, 6432
  store i64 %127, ptr %95, align 8
  store i32 0, ptr %89, align 4
  %128 = load ptr, ptr %113, align 8
  %129 = load i32, ptr %103, align 4
  %130 = sext i32 %129 to i64
  %131 = getelementptr inbounds ptr, ptr %128, i64 %130
  %132 = load ptr, ptr %131, align 8
  %133 = getelementptr inbounds nuw i8, ptr %0, i64 1352
  %134 = getelementptr inbounds [14 x [4 x ptr]], ptr %133, i64 0, i64 %87, i64 %88
  store ptr %132, ptr %134, align 8
  br label %._crit_edge.sink.split

135:                                              ; preds = %80, %25
  %.1 = phi ptr [ %27, %25 ], [ %82, %80 ]
  %136 = getelementptr inbounds nuw i8, ptr %.1, i64 8
  %137 = load i64, ptr %136, align 8
  %138 = icmp eq i64 %2, %137
  br i1 %138, label %._crit_edge, label %.lr.ph, !llvm.loop !31

._crit_edge.sink.split:                           ; preds = %125, %123, %107, %92, %70, %68, %52, %37
  %.sink66 = phi ptr [ %29, %37 ], [ %29, %52 ], [ %29, %68 ], [ %29, %70 ], [ %84, %92 ], [ %84, %107 ], [ %84, %123 ], [ %84, %125 ]
  store ptr %.0, ptr %.sink66, align 8
  store ptr null, ptr %.0, align 8
  %139 = getelementptr inbounds nuw i8, ptr %.0, i64 8
  store i64 %2, ptr %139, align 8
  %140 = getelementptr inbounds nuw i8, ptr %.0, i64 16
  tail call void @llvm.memset.p0.i64(ptr noundef nonnull align 8 dereferenceable(16) %140, i8 0, i64 16, i1 false)
  br label %._crit_edge

._crit_edge:                                      ; preds = %135, %._crit_edge.sink.split, %83, %28, %19
  %.sink = phi i8 [ 1, %19 ], [ 0, %28 ], [ 0, %83 ], [ 1, %._crit_edge.sink.split ], [ 1, %135 ]
  %.046 = phi ptr [ %1, %19 ], [ null, %28 ], [ null, %83 ], [ %.0, %._crit_edge.sink.split ], [ %.1, %135 ]
  store i8 %.sink, ptr %6, align 1
  ret ptr %.046
}